target datalayout = "e-m:e-p270:32:32-p271:32:32-p272:64:64-i64:64-i128:128-f80:128-n8:16:32:64-S128"
target triple = "x86_64-pc-linux-gnu"

%struct.Vec_Str_t_ = type { i32, i32, ptr }

@.str.11 = private unnamed_addr constant [3 x i8] c"wb\00", align 1
@.str.12 = private unnamed_addr constant [58 x i8] c"Scl_LibertyStringDump(): The output file is unavailable.\0A\00", align 1

; Function Attrs: nounwind uwtable
define internal i32 @Vec_StrSize(ptr noundef %0) #0 {
  %2 = alloca ptr, align 8
  store ptr %0, ptr %2, align 8
  %3 = load ptr, ptr %2, align 8
  %4 = getelementptr inbounds %struct.Vec_Str_t_, ptr %3, i32 0, i32 1
  %5 = load i32, ptr %4, align 4
  ret i32 %5
}

; Function Attrs: nounwind uwtable
define internal ptr @Vec_StrArray(ptr noundef %0) #0 {
  %2 = alloca ptr, align 8
  store ptr %0, ptr %2, align 8
  %3 = load ptr, ptr %2, align 8
  %4 = getelementptr inbounds %struct.Vec_Str_t_, ptr %3, i32 0, i32 2
  %5 = load ptr, ptr %4, align 8
  ret ptr %5
}

; Function Attrs: nounwind uwtable
define void @Scl_LibertyStringDump(ptr noundef %0, ptr noundef %1) #0 {
  %3 = alloca ptr, align 8
  %4 = alloca ptr, align 8
  %5 = alloca ptr, align 8
  %6 = alloca i32, align 4
  store ptr %0, ptr %3, align 8
  store ptr %1, ptr %4, align 8
  %7 = load ptr, ptr %3, align 8
  %8 = call noalias ptr @fopen(ptr noundef %7, ptr noundef @.str.11)
  store ptr %8, ptr %5, align 8
  store i32 0, ptr %6, align 4
  %9 = load ptr, ptr %5, align 8
  %10 = icmp eq ptr %9, null
  br i1 %10, label %11, label %13

11:                                               ; preds = %2
  %12 = call i32 (ptr, ...) @printf(ptr noundef @.str.12)
  br label %24

13:                                               ; preds = %2
  %14 = load ptr, ptr %4, align 8
  %15 = call ptr @Vec_StrArray(ptr noundef %14)
  %16 = load ptr, ptr %4, align 8
  %17 = call i32 @Vec_StrSize(ptr noundef %16)
  %18 = sext i32 %17 to i64
  %19 = load ptr, ptr %5, align 8
  %20 = call i64 @fwrite(ptr noundef %15, i64 noundef 1, i64 noundef %18, ptr noundef %19)
  %21 = trunc i64 %20 to i32
  store i32 %21, ptr %6, align 4
  %22 = load ptr, ptr %5, align 8
  %23 = call i32 @fclose(ptr noundef %22)
  br label %24

24:                                               ; preds = %13, %11
  ret void
}