; Function Attrs: nofree nounwind uwtable
define void @Scl_LibertyStringDump(ptr noundef readonly captures(none) %0, ptr noundef readonly captures(none) %1) local_unnamed_addr #0 {
  %3 = tail call noalias ptr @fopen(ptr noundef %0, ptr noundef nonnull @.str.11)
  %4 = icmp eq ptr %3, null
  br i1 %4, label %5, label %6

5:                                                ; preds = %2
  %puts = tail call i32 @puts(ptr nonnull dereferenceable(1) @str.2)
  br label %12

6:                                                ; preds = %2
  %7 = getelementptr i8, ptr %1, i64 8
  %.val6 = load ptr, ptr %7, align 8
  %8 = getelementptr i8, ptr %1, i64 4
  %.val = load i32, ptr %8, align 4
  %9 = sext i32 %.val to i64
  %10 = tail call i64 @fwrite(ptr noundef %.val6, i64 noundef 1, i64 noundef %9, ptr noundef nonnull %3)
  %11 = tail call i32 @fclose(ptr noundef nonnull %3)
  br label %12

12:                                               ; preds = %6, %5
  ret void
}